target datalayout = "e-m:e-p270:32:32-p271:32:32-p272:64:64-i64:64-i128:128-f80:128-n8:16:32:64-S128"
target triple = "x86_64-pc-linux-gnu"

%struct.UriParserStateStructA = type { ptr, i32, ptr, ptr }
%struct.UriUriStructA = type { %struct.UriTextRangeStructA, %struct.UriTextRangeStructA, %struct.UriTextRangeStructA, %struct.UriHostDataStructA, %struct.UriTextRangeStructA, ptr, ptr, %struct.UriTextRangeStructA, %struct.UriTextRangeStructA, i32, i32, ptr }
%struct.UriHostDataStructA = type { ptr, ptr, %struct.UriTextRangeStructA }
%struct.UriTextRangeStructA = type { ptr, ptr }

; Function Attrs: inlinehint nounwind uwtable
define internal void @uriStopMallocA(ptr noundef %0, ptr noundef %1) #4 {
  %3 = alloca ptr, align 8
  %4 = alloca ptr, align 8
  store ptr %0, ptr %3, align 8, !tbaa !3
  store ptr %1, ptr %4, align 8, !tbaa !10
  %5 = load ptr, ptr %3, align 8, !tbaa !3
  %6 = getelementptr inbounds nuw %struct.UriParserStateStructA, ptr %5, i32 0, i32 0
  %7 = load ptr, ptr %6, align 8, !tbaa !12
  %8 = load ptr, ptr %4, align 8, !tbaa !10
  %9 = call i32 @uriFreeUriMembersMmA(ptr noundef %7, ptr noundef %8)
  %10 = load ptr, ptr %3, align 8, !tbaa !3
  %11 = getelementptr inbounds nuw %struct.UriParserStateStructA, ptr %10, i32 0, i32 2
  store ptr null, ptr %11, align 8, !tbaa !17
  %12 = load ptr, ptr %3, align 8, !tbaa !3
  %13 = getelementptr inbounds nuw %struct.UriParserStateStructA, ptr %12, i32 0, i32 1
  store i32 3, ptr %13, align 8, !tbaa !18
  ret void
}

; Function Attrs: nounwind uwtable
define internal ptr @uriParseMustBeSegmentNzNcA(ptr noundef %0, ptr noundef %1, ptr noundef %2, ptr noundef %3) #0 {
  %5 = alloca ptr, align 8
  %6 = alloca ptr, align 8
  %7 = alloca ptr, align 8
  %8 = alloca ptr, align 8
  %9 = alloca ptr, align 8
  %10 = alloca ptr, align 8
  %11 = alloca i32, align 4
  %12 = alloca ptr, align 8
  %13 = alloca ptr, align 8
  store ptr %0, ptr %6, align 8, !tbaa !3
  store ptr %1, ptr %7, align 8, !tbaa !8
  store ptr %2, ptr %8, align 8, !tbaa !8
  store ptr %3, ptr %9, align 8, !tbaa !10
  %14 = load ptr, ptr %7, align 8, !tbaa !8
  %15 = load ptr, ptr %8, align 8, !tbaa !8
  %16 = icmp uge ptr %14, %15
  br i1 %16, label %17, label %39

17:                                               ; preds = %4
  %18 = load ptr, ptr %6, align 8, !tbaa !3
  %19 = load ptr, ptr %6, align 8, !tbaa !3
  %20 = getelementptr inbounds nuw %struct.UriParserStateStructA, ptr %19, i32 0, i32 0
  %21 = load ptr, ptr %20, align 8, !tbaa !12
  %22 = getelementptr inbounds nuw %struct.UriUriStructA, ptr %21, i32 0, i32 0
  %23 = getelementptr inbounds nuw %struct.UriTextRangeStructA, ptr %22, i32 0, i32 0
  %24 = load ptr, ptr %23, align 8, !tbaa !29
  %25 = load ptr, ptr %7, align 8, !tbaa !8
  %26 = load ptr, ptr %9, align 8, !tbaa !10
  %27 = call i32 @uriPushPathSegmentA(ptr noundef %18, ptr noundef %24, ptr noundef %25, ptr noundef %26)
  %28 = icmp ne i32 %27, 0
  br i1 %28, label %32, label %29

29:                                               ; preds = %17
  %30 = load ptr, ptr %6, align 8, !tbaa !3
  %31 = load ptr, ptr %9, align 8, !tbaa !10
  call void @uriStopMallocA(ptr noundef %30, ptr noundef %31)
  store ptr null, ptr %5, align 8
  br label %149

32:                                               ; preds = %17
  %33 = load ptr, ptr %6, align 8, !tbaa !3
  %34 = getelementptr inbounds nuw %struct.UriParserStateStructA, ptr %33, i32 0, i32 0
  %35 = load ptr, ptr %34, align 8, !tbaa !12
  %36 = getelementptr inbounds nuw %struct.UriUriStructA, ptr %35, i32 0, i32 0
  %37 = getelementptr inbounds nuw %struct.UriTextRangeStructA, ptr %36, i32 0, i32 0
  store ptr null, ptr %37, align 8, !tbaa !29
  %38 = load ptr, ptr %8, align 8, !tbaa !8
  store ptr %38, ptr %5, align 8
  br label %149

39:                                               ; preds = %4
  %40 = load ptr, ptr %7, align 8, !tbaa !8
  %41 = load i8, ptr %40, align 1, !tbaa !57
  %42 = sext i8 %41 to i32
  switch i32 %42, label %123 [
    i32 37, label %43
    i32 64, label %59
    i32 33, label %59
    i32 36, label %59
    i32 38, label %59
    i32 40, label %59
    i32 41, label %59
    i32 42, label %59
    i32 44, label %59
    i32 59, label %59
    i32 39, label %59
    i32 43, label %59
    i32 61, label %59
    i32 45, label %59
    i32 46, label %59
    i32 95, label %59
    i32 126, label %59
    i32 48, label %59
    i32 49, label %59
    i32 50, label %59
    i32 51, label %59
    i32 52, label %59
    i32 53, label %59
    i32 54, label %59
    i32 55, label %59
    i32 56, label %59
    i32 57, label %59
    i32 65, label %59
    i32 66, label %59
    i32 67, label %59
    i32 68, label %59
    i32 69, label %59
    i32 70, label %59
    i32 97, label %59
    i32 98, label %59
    i32 99, label %59
    i32 100, label %59
    i32 101, label %59
    i32 102, label %59
    i32 103, label %59
    i32 71, label %59
    i32 104, label %59
    i32 72, label %59
    i32 105, label %59
    i32 73, label %59
    i32 106, label %59
    i32 74, label %59
    i32 107, label %59
    i32 75, label %59
    i32 108, label %59
    i32 76, label %59
    i32 109, label %59
    i32 77, label %59
    i32 110, label %59
    i32 78, label %59
    i32 111, label %59
    i32 79, label %59
    i32 112, label %59
    i32 80, label %59
    i32 113, label %59
    i32 81, label %59
    i32 114, label %59
    i32 82, label %59
    i32 115, label %59
    i32 83, label %59
    i32 116, label %59
    i32 84, label %59
    i32 117, label %59
    i32 85, label %59
    i32 118, label %59
    i32 86, label %59
    i32 119, label %59
    i32 87, label %59
    i32 120, label %59
    i32 88, label %59
    i32 121, label %59
    i32 89, label %59
    i32 122, label %59
    i32 90, label %59
    i32 47, label %66
  ]

43:                                               ; preds = %39
  call void @llvm.lifetime.start.p0(i64 8, ptr %10) #7
  %44 = load ptr, ptr %6, align 8, !tbaa !3
  %45 = load ptr, ptr %7, align 8, !tbaa !8
  %46 = load ptr, ptr %8, align 8, !tbaa !8
  %47 = load ptr, ptr %9, align 8, !tbaa !10
  %48 = call ptr @uriParsePctEncodedA(ptr noundef %44, ptr noundef %45, ptr noundef %46, ptr noundef %47)
  store ptr %48, ptr %10, align 8, !tbaa !8
  %49 = load ptr, ptr %10, align 8, !tbaa !8
  %50 = icmp eq ptr %49, null
  br i1 %50, label %51, label %52

51:                                               ; preds = %43
  store ptr null, ptr %5, align 8
  store i32 1, ptr %11, align 4
  br label %58

52:                                               ; preds = %43
  %53 = load ptr, ptr %6, align 8, !tbaa !3
  %54 = load ptr, ptr %10, align 8, !tbaa !8
  %55 = load ptr, ptr %8, align 8, !tbaa !8
  %56 = load ptr, ptr %9, align 8, !tbaa !10
  %57 = call ptr @uriParseMustBeSegmentNzNcA(ptr noundef %53, ptr noundef %54, ptr noundef %55, ptr noundef %56)
  store ptr %57, ptr %5, align 8
  store i32 1, ptr %11, align 4
  br label %58

58:                                               ; preds = %52, %51
  call void @llvm.lifetime.end.p0(i64 8, ptr %10) #7
  br label %149

59:                                               ; preds = %39, %39, %39, %39, %39, %39, %39, %39, %39, %39, %39, %39, %39, %39, %39, %39, %39, %39, %39, %39, %39, %39, %39, %39, %39, %39, %39, %39, %39, %39, %39, %39, %39, %39, %39, %39, %39, %39, %39, %39, %39, %39, %39, %39, %39, %39, %39, %39, %39, %39, %39, %39, %39, %39, %39, %39, %39, %39, %39, %39, %39, %39, %39, %39, %39, %39, %39, %39, %39, %39, %39, %39, %39, %39, %39, %39, %39, %39
  %60 = load ptr, ptr %6, align 8, !tbaa !3
  %61 = load ptr, ptr %7, align 8, !tbaa !8
  %62 = getelementptr inbounds i8, ptr %61, i64 1
  %63 = load ptr, ptr %8, align 8, !tbaa !8
  %64 = load ptr, ptr %9, align 8, !tbaa !10
  %65 = call ptr @uriParseMustBeSegmentNzNcA(ptr noundef %60, ptr noundef %62, ptr noundef %63, ptr noundef %64)
  store ptr %65, ptr %5, align 8
  br label %149

66:                                               ; preds = %39
  call void @llvm.lifetime.start.p0(i64 8, ptr %12) #7
  call void @llvm.lifetime.start.p0(i64 8, ptr %13) #7
  %67 = load ptr, ptr %6, align 8, !tbaa !3
  %68 = load ptr, ptr %6, align 8, !tbaa !3
  %69 = getelementptr inbounds nuw %struct.UriParserStateStructA, ptr %68, i32 0, i32 0
  %70 = load ptr, ptr %69, align 8, !tbaa !12
  %71 = getelementptr inbounds nuw %struct.UriUriStructA, ptr %70, i32 0, i32 0
  %72 = getelementptr inbounds nuw %struct.UriTextRangeStructA, ptr %71, i32 0, i32 0
  %73 = load ptr, ptr %72, align 8, !tbaa !29
  %74 = load ptr, ptr %7, align 8, !tbaa !8
  %75 = load ptr, ptr %9, align 8, !tbaa !10
  %76 = call i32 @uriPushPathSegmentA(ptr noundef %67, ptr noundef %73, ptr noundef %74, ptr noundef %75)
  %77 = icmp ne i32 %76, 0
  br i1 %77, label %81, label %78

78:                                               ; preds = %66
  %79 = load ptr, ptr %6, align 8, !tbaa !3
  %80 = load ptr, ptr %9, align 8, !tbaa !10
  call void @uriStopMallocA(ptr noundef %79, ptr noundef %80)
  store ptr null, ptr %5, align 8
  store i32 1, ptr %11, align 4
  br label %122

81:                                               ; preds = %66
  %82 = load ptr, ptr %6, align 8, !tbaa !3
  %83 = getelementptr inbounds nuw %struct.UriParserStateStructA, ptr %82, i32 0, i32 0
  %84 = load ptr, ptr %83, align 8, !tbaa !12
  %85 = getelementptr inbounds nuw %struct.UriUriStructA, ptr %84, i32 0, i32 0
  %86 = getelementptr inbounds nuw %struct.UriTextRangeStructA, ptr %85, i32 0, i32 0
  store ptr null, ptr %86, align 8, !tbaa !29
  %87 = load ptr, ptr %6, align 8, !tbaa !3
  %88 = load ptr, ptr %7, align 8, !tbaa !8
  %89 = getelementptr inbounds i8, ptr %88, i64 1
  %90 = load ptr, ptr %8, align 8, !tbaa !8
  %91 = load ptr, ptr %9, align 8, !tbaa !10
  %92 = call ptr @uriParseSegmentA(ptr noundef %87, ptr noundef %89, ptr noundef %90, ptr noundef %91)
  store ptr %92, ptr %13, align 8, !tbaa !8
  %93 = load ptr, ptr %13, align 8, !tbaa !8
  %94 = icmp eq ptr %93, null
  br i1 %94, label %95, label %96

95:                                               ; preds = %81
  store ptr null, ptr %5, align 8
  store i32 1, ptr %11, align 4
  br label %122

96:                                               ; preds = %81
  %97 = load ptr, ptr %6, align 8, !tbaa !3
  %98 = load ptr, ptr %7, align 8, !tbaa !8
  %99 = getelementptr inbounds i8, ptr %98, i64 1
  %100 = load ptr, ptr %13, align 8, !tbaa !8
  %101 = load ptr, ptr %9, align 8, !tbaa !10
  %102 = call i32 @uriPushPathSegmentA(ptr noundef %97, ptr noundef %99, ptr noundef %100, ptr noundef %101)
  %103 = icmp ne i32 %102, 0
  br i1 %103, label %107, label %104

104:                                              ; preds = %96
  %105 = load ptr, ptr %6, align 8, !tbaa !3
  %106 = load ptr, ptr %9, align 8, !tbaa !10
  call void @uriStopMallocA(ptr noundef %105, ptr noundef %106)
  store ptr null, ptr %5, align 8
  store i32 1, ptr %11, align 4
  br label %122

107:                                              ; preds = %96
  %108 = load ptr, ptr %6, align 8, !tbaa !3
  %109 = load ptr, ptr %13, align 8, !tbaa !8
  %110 = load ptr, ptr %8, align 8, !tbaa !8
  %111 = load ptr, ptr %9, align 8, !tbaa !10
  %112 = call ptr @uriParseZeroMoreSlashSegsA(ptr noundef %108, ptr noundef %109, ptr noundef %110, ptr noundef %111)
  store ptr %112, ptr %12, align 8, !tbaa !8
  %113 = load ptr, ptr %12, align 8, !tbaa !8
  %114 = icmp eq ptr %113, null
  br i1 %114, label %115, label %116

115:                                              ; preds = %107
  store ptr null, ptr %5, align 8
  store i32 1, ptr %11, align 4
  br label %122

116:                                              ; preds = %107
  %117 = load ptr, ptr %6, align 8, !tbaa !3
  %118 = load ptr, ptr %12, align 8, !tbaa !8
  %119 = load ptr, ptr %8, align 8, !tbaa !8
  %120 = load ptr, ptr %9, align 8, !tbaa !10
  %121 = call ptr @uriParseUriTailA(ptr noundef %117, ptr noundef %118, ptr noundef %119, ptr noundef %120)
  store ptr %121, ptr %5, align 8
  store i32 1, ptr %11, align 4
  br label %122

122:                                              ; preds = %116, %115, %104, %95, %78
  call void @llvm.lifetime.end.p0(i64 8, ptr %13) #7
  call void @llvm.lifetime.end.p0(i64 8, ptr %12) #7
  br label %149

123:                                              ; preds = %39
  %124 = load ptr, ptr %6, align 8, !tbaa !3
  %125 = load ptr, ptr %6, align 8, !tbaa !3
  %126 = getelementptr inbounds nuw %struct.UriParserStateStructA, ptr %125, i32 0, i32 0
  %127 = load ptr, ptr %126, align 8, !tbaa !12
  %128 = getelementptr inbounds nuw %struct.UriUriStructA, ptr %127, i32 0, i32 0
  %129 = getelementptr inbounds nuw %struct.UriTextRangeStructA, ptr %128, i32 0, i32 0
  %130 = load ptr, ptr %129, align 8, !tbaa !29
  %131 = load ptr, ptr %7, align 8, !tbaa !8
  %132 = load ptr, ptr %9, align 8, !tbaa !10
  %133 = call i32 @uriPushPathSegmentA(ptr noundef %124, ptr noundef %130, ptr noundef %131, ptr noundef %132)
  %134 = icmp ne i32 %133, 0
  br i1 %134, label %138, label %135

135:                                              ; preds = %123
  %136 = load ptr, ptr %6, align 8, !tbaa !3
  %137 = load ptr, ptr %9, align 8, !tbaa !10
  call void @uriStopMallocA(ptr noundef %136, ptr noundef %137)
  store ptr null, ptr %5, align 8
  br label %149

138:                                              ; preds = %123
  %139 = load ptr, ptr %6, align 8, !tbaa !3
  %140 = getelementptr inbounds nuw %struct.UriParserStateStructA, ptr %139, i32 0, i32 0
  %141 = load ptr, ptr %140, align 8, !tbaa !12
  %142 = getelementptr inbounds nuw %struct.UriUriStructA, ptr %141, i32 0, i32 0
  %143 = getelementptr inbounds nuw %struct.UriTextRangeStructA, ptr %142, i32 0, i32 0
  store ptr null, ptr %143, align 8, !tbaa !29
  %144 = load ptr, ptr %6, align 8, !tbaa !3
  %145 = load ptr, ptr %7, align 8, !tbaa !8
  %146 = load ptr, ptr %8, align 8, !tbaa !8
  %147 = load ptr, ptr %9, align 8, !tbaa !10
  %148 = call ptr @uriParseUriTailA(ptr noundef %144, ptr noundef %145, ptr noundef %146, ptr noundef %147)
  store ptr %148, ptr %5, align 8
  br label %149

149:                                              ; preds = %138, %135, %122, %59, %58, %32, %29
  %150 = load ptr, ptr %5, align 8
  ret ptr %150
}