; Function Attrs: nounwind uwtable
define internal fastcc noundef ptr @uriParseMustBeSegmentNzNcA(ptr noundef nonnull captures(none) %0, ptr noundef nonnull %1, ptr noundef nonnull %2, ptr noundef %3) unnamed_addr #0 {
  %.not82 = icmp ult ptr %1, %2
  br i1 %.not82, label %.lr.ph, label %tailrecurse._crit_edge

tailrecurse._crit_edge:                           ; preds = %tailrecurse.backedge, %4
  %.tr76.lcssa = phi ptr [ %1, %4 ], [ %.tr76.be, %tailrecurse.backedge ]
  %5 = load ptr, ptr %0, align 8, !tbaa !3
  %6 = load ptr, ptr %5, align 8, !tbaa !12
  %7 = getelementptr inbounds nuw i8, ptr %3, i64 8
  %8 = load ptr, ptr %7, align 8, !tbaa !19
  %9 = tail call ptr %8(ptr noundef %3, i64 noundef 1, i64 noundef 32) #7
  %10 = icmp eq ptr %9, null
  br i1 %10, label %uriPushPathSegmentA.exit, label %11

11:                                               ; preds = %tailrecurse._crit_edge
  %12 = icmp eq ptr %6, %.tr76.lcssa
  %13 = load ptr, ptr @uriSafeToPointToA, align 8
  %spec.select.i = select i1 %12, ptr %13, ptr %6
  %spec.select24.i = select i1 %12, ptr %13, ptr %.tr76.lcssa
  store ptr %spec.select.i, ptr %9, align 8, !tbaa !21
  %14 = getelementptr inbounds nuw i8, ptr %9, i64 8
  store ptr %spec.select24.i, ptr %14, align 8, !tbaa !23
  %15 = load ptr, ptr %0, align 8, !tbaa !3
  %16 = getelementptr inbounds nuw i8, ptr %15, i64 96
  %17 = load ptr, ptr %16, align 8, !tbaa !24
  %18 = icmp eq ptr %17, null
  br i1 %18, label %19, label %21

19:                                               ; preds = %11
  store ptr %9, ptr %16, align 8, !tbaa !24
  %20 = getelementptr inbounds nuw i8, ptr %15, i64 104
  store ptr %9, ptr %20, align 8, !tbaa !25
  br label %29

21:                                               ; preds = %11
  %22 = getelementptr inbounds nuw i8, ptr %15, i64 104
  %23 = load ptr, ptr %22, align 8, !tbaa !25
  %24 = getelementptr inbounds nuw i8, ptr %23, i64 16
  store ptr %9, ptr %24, align 8, !tbaa !26
  store ptr %9, ptr %22, align 8, !tbaa !25
  br label %29

uriPushPathSegmentA.exit:                         ; preds = %tailrecurse._crit_edge
  %25 = load ptr, ptr %0, align 8, !tbaa !3
  %26 = tail call i32 @uriFreeUriMembersMmA(ptr noundef %25, ptr noundef nonnull %3)
  %27 = getelementptr inbounds nuw i8, ptr %0, i64 16
  store ptr null, ptr %27, align 8, !tbaa !28
  %28 = getelementptr inbounds nuw i8, ptr %0, i64 8
  store i32 3, ptr %28, align 8, !tbaa !29
  br label %.loopexit

29:                                               ; preds = %21, %19
  store ptr null, ptr %15, align 8, !tbaa !12
  br label %.loopexit

.lr.ph:                                           ; preds = %4, %tailrecurse.backedge
  %.tr7683 = phi ptr [ %.tr76.be, %tailrecurse.backedge ], [ %1, %4 ]
  %30 = load i8, ptr %.tr7683, align 1, !tbaa !11
  switch i8 %30, label %61 [
    i8 37, label %31
    i8 64, label %34
    i8 33, label %34
    i8 36, label %34
    i8 38, label %34
    i8 40, label %34
    i8 41, label %34
    i8 42, label %34
    i8 44, label %34
    i8 59, label %34
    i8 39, label %34
    i8 43, label %34
    i8 61, label %34
    i8 45, label %34
    i8 46, label %34
    i8 95, label %34
    i8 126, label %34
    i8 48, label %34
    i8 49, label %34
    i8 50, label %34
    i8 51, label %34
    i8 52, label %34
    i8 53, label %34
    i8 54, label %34
    i8 55, label %34
    i8 56, label %34
    i8 57, label %34
    i8 65, label %34
    i8 66, label %34
    i8 67, label %34
    i8 68, label %34
    i8 69, label %34
    i8 70, label %34
    i8 97, label %34
    i8 98, label %34
    i8 99, label %34
    i8 100, label %34
    i8 101, label %34
    i8 102, label %34
    i8 103, label %34
    i8 71, label %34
    i8 104, label %34
    i8 72, label %34
    i8 105, label %34
    i8 73, label %34
    i8 106, label %34
    i8 74, label %34
    i8 107, label %34
    i8 75, label %34
    i8 108, label %34
    i8 76, label %34
    i8 109, label %34
    i8 77, label %34
    i8 110, label %34
    i8 78, label %34
    i8 111, label %34
    i8 79, label %34
    i8 112, label %34
    i8 80, label %34
    i8 113, label %34
    i8 81, label %34
    i8 114, label %34
    i8 82, label %34
    i8 115, label %34
    i8 83, label %34
    i8 116, label %34
    i8 84, label %34
    i8 117, label %34
    i8 85, label %34
    i8 118, label %34
    i8 86, label %34
    i8 119, label %34
    i8 87, label %34
    i8 120, label %34
    i8 88, label %34
    i8 121, label %34
    i8 89, label %34
    i8 122, label %34
    i8 90, label %34
    i8 47, label %36
  ]

31:                                               ; preds = %.lr.ph
  %32 = tail call fastcc ptr @uriParsePctEncodedA(ptr noundef %0, ptr noundef %.tr7683, ptr noundef %2, ptr noundef %3)
  %33 = icmp eq ptr %32, null
  br i1 %33, label %.loopexit, label %tailrecurse.backedge

34:                                               ; preds = %.lr.ph, %.lr.ph, %.lr.ph, %.lr.ph, %.lr.ph, %.lr.ph, %.lr.ph, %.lr.ph, %.lr.ph, %.lr.ph, %.lr.ph, %.lr.ph, %.lr.ph, %.lr.ph, %.lr.ph, %.lr.ph, %.lr.ph, %.lr.ph, %.lr.ph, %.lr.ph, %.lr.ph, %.lr.ph, %.lr.ph, %.lr.ph, %.lr.ph, %.lr.ph, %.lr.ph, %.lr.ph, %.lr.ph, %.lr.ph, %.lr.ph, %.lr.ph, %.lr.ph, %.lr.ph, %.lr.ph, %.lr.ph, %.lr.ph, %.lr.ph, %.lr.ph, %.lr.ph, %.lr.ph, %.lr.ph, %.lr.ph, %.lr.ph, %.lr.ph, %.lr.ph, %.lr.ph, %.lr.ph, %.lr.ph, %.lr.ph, %.lr.ph, %.lr.ph, %.lr.ph, %.lr.ph, %.lr.ph, %.lr.ph, %.lr.ph, %.lr.ph, %.lr.ph, %.lr.ph, %.lr.ph, %.lr.ph, %.lr.ph, %.lr.ph, %.lr.ph, %.lr.ph, %.lr.ph, %.lr.ph, %.lr.ph, %.lr.ph, %.lr.ph, %.lr.ph, %.lr.ph, %.lr.ph, %.lr.ph, %.lr.ph, %.lr.ph, %.lr.ph
  %35 = getelementptr inbounds nuw i8, ptr %.tr7683, i64 1
  br label %tailrecurse.backedge

tailrecurse.backedge:                             ; preds = %34, %31
  %.tr76.be = phi ptr [ %35, %34 ], [ %32, %31 ]
  %.not = icmp ult ptr %.tr76.be, %2
  br i1 %.not, label %.lr.ph, label %tailrecurse._crit_edge

36:                                               ; preds = %.lr.ph
  %37 = load ptr, ptr %0, align 8, !tbaa !3
  %38 = load ptr, ptr %37, align 8, !tbaa !12
  %39 = tail call fastcc i32 @uriPushPathSegmentA(ptr noundef %0, ptr noundef %38, ptr noundef %.tr7683, ptr noundef %3)
  %.not70 = icmp eq i32 %39, 0
  %40 = load ptr, ptr %0, align 8, !tbaa !3
  br i1 %.not70, label %41, label %45

41:                                               ; preds = %36
  %42 = tail call i32 @uriFreeUriMembersMmA(ptr noundef %40, ptr noundef %3)
  %43 = getelementptr inbounds nuw i8, ptr %0, i64 16
  store ptr null, ptr %43, align 8, !tbaa !28
  %44 = getelementptr inbounds nuw i8, ptr %0, i64 8
  store i32 3, ptr %44, align 8, !tbaa !29
  br label %.loopexit

45:                                               ; preds = %36
  store ptr null, ptr %40, align 8, !tbaa !12
  %46 = getelementptr inbounds nuw i8, ptr %.tr7683, i64 1
  %47 = tail call fastcc ptr @uriParseSegmentA(ptr noundef %0, ptr noundef %46, ptr noundef %2, ptr noundef %3)
  %48 = icmp eq ptr %47, null
  br i1 %48, label %.loopexit, label %49

49:                                               ; preds = %45
  %50 = tail call fastcc i32 @uriPushPathSegmentA(ptr noundef %0, ptr noundef nonnull %46, ptr noundef %47, ptr noundef %3)
  %.not71 = icmp eq i32 %50, 0
  br i1 %.not71, label %51, label %56

51:                                               ; preds = %49
  %52 = load ptr, ptr %0, align 8, !tbaa !3
  %53 = tail call i32 @uriFreeUriMembersMmA(ptr noundef %52, ptr noundef %3)
  %54 = getelementptr inbounds nuw i8, ptr %0, i64 16
  store ptr null, ptr %54, align 8, !tbaa !28
  %55 = getelementptr inbounds nuw i8, ptr %0, i64 8
  store i32 3, ptr %55, align 8, !tbaa !29
  br label %.loopexit

56:                                               ; preds = %49
  %57 = tail call fastcc ptr @uriParseZeroMoreSlashSegsA(ptr noundef %0, ptr noundef %47, ptr noundef %2, ptr noundef %3)
  %58 = icmp eq ptr %57, null
  br i1 %58, label %.loopexit, label %59

59:                                               ; preds = %56
  %60 = tail call fastcc ptr @uriParseUriTailA(ptr noundef %0, ptr noundef %57, ptr noundef %2, ptr noundef %3)
  br label %.loopexit

61:                                               ; preds = %.lr.ph
  %62 = load ptr, ptr %0, align 8, !tbaa !3
  %63 = load ptr, ptr %62, align 8, !tbaa !12
  %64 = tail call fastcc i32 @uriPushPathSegmentA(ptr noundef %0, ptr noundef %63, ptr noundef %.tr7683, ptr noundef %3)
  %.not72 = icmp eq i32 %64, 0
  %65 = load ptr, ptr %0, align 8, !tbaa !3
  br i1 %.not72, label %66, label %70

66:                                               ; preds = %61
  %67 = tail call i32 @uriFreeUriMembersMmA(ptr noundef %65, ptr noundef %3)
  %68 = getelementptr inbounds nuw i8, ptr %0, i64 16
  store ptr null, ptr %68, align 8, !tbaa !28
  %69 = getelementptr inbounds nuw i8, ptr %0, i64 8
  store i32 3, ptr %69, align 8, !tbaa !29
  br label %.loopexit

70:                                               ; preds = %61
  store ptr null, ptr %65, align 8, !tbaa !12
  %71 = tail call fastcc ptr @uriParseUriTailA(ptr noundef %0, ptr noundef %.tr7683, ptr noundef %2, ptr noundef %3)
  br label %.loopexit

.loopexit:                                        ; preds = %31, %41, %51, %59, %45, %56, %70, %66, %29, %uriPushPathSegmentA.exit
  %.0 = phi ptr [ %2, %29 ], [ null, %uriPushPathSegmentA.exit ], [ %71, %70 ], [ null, %66 ], [ %60, %59 ], [ null, %51 ], [ null, %41 ], [ null, %45 ], [ null, %56 ], [ null, %31 ]
  ret ptr %.0
}